target datalayout = "e-m:e-p270:32:32-p271:32:32-p272:64:64-i64:64-i128:128-f80:128-n8:16:32:64-S128"
target triple = "x86_64-pc-linux-gnu"

%class.OopHandle = type { ptr }
%class.ModuleEntry = type { %class.OopHandle, %class.OopHandle, ptr, ptr, %union.anon, ptr, ptr, i32, i8, i8, i8, i8, i8, i32, i64 }
%union.anon = type { ptr }
%class.MutexLocker = type { %class.MutexLockerImpl }
%class.MutexLockerImpl = type { ptr }
%class.GrowableArrayBase = type { i32, i32 }
%class.GrowableArrayView = type { %class.GrowableArrayBase, ptr }

@_ZN16ModuleEntryTable16_javabase_moduleE = hidden global ptr null, align 8
@Module_lock = external global ptr, align 8
@_ZN15ClassLoaderData27_the_null_class_loader_dataE = external global ptr, align 8

; Function Attrs: mustprogress nounwind uwtable
define linkonce_odr hidden void @_ZN15MutexLockerImplD2Ev(ptr noundef nonnull align 8 dereferenceable(8) %0) unnamed_addr #1 comdat align 2 {
  %2 = alloca ptr, align 8
  store ptr %0, ptr %2, align 8
  %3 = load ptr, ptr %2, align 8
  %4 = getelementptr inbounds %class.MutexLockerImpl, ptr %3, i32 0, i32 0
  %5 = load ptr, ptr %4, align 8
  %6 = icmp ne ptr %5, null
  br i1 %6, label %7, label %10

7:                                                ; preds = %1
  %8 = getelementptr inbounds %class.MutexLockerImpl, ptr %3, i32 0, i32 0
  %9 = load ptr, ptr %8, align 8
  call void @_ZN5Mutex6unlockEv(ptr noundef nonnull align 8 dereferenceable(104) %9)
  br label %10

10:                                               ; preds = %7, %1
  ret void
}

; Function Attrs: mustprogress nounwind uwtable
define linkonce_odr hidden noundef zeroext i1 @_ZNK17GrowableArrayBase8is_emptyEv(ptr noundef nonnull align 4 dereferenceable(8) %0) #1 comdat align 2 {
  %2 = alloca ptr, align 8
  store ptr %0, ptr %2, align 8
  %3 = load ptr, ptr %2, align 8
  %4 = getelementptr inbounds %class.GrowableArrayBase, ptr %3, i32 0, i32 0
  %5 = load i32, ptr %4, align 4
  %6 = icmp eq i32 %5, 0
  ret i1 %6
}

; Function Attrs: mustprogress nounwind uwtable
define linkonce_odr hidden void @_ZN15MutexLockerImplC2EP5MutexNS0_18SafepointCheckFlagE(ptr noundef nonnull align 8 dereferenceable(8) %0, ptr noundef %1, i32 noundef %2) unnamed_addr #1 comdat align 2 {
  %4 = alloca ptr, align 8
  %5 = alloca ptr, align 8
  %6 = alloca i32, align 4
  %7 = alloca i8, align 1
  store ptr %0, ptr %4, align 8
  store ptr %1, ptr %5, align 8
  store i32 %2, ptr %6, align 4
  %8 = load ptr, ptr %4, align 8
  %9 = getelementptr inbounds %class.MutexLockerImpl, ptr %8, i32 0, i32 0
  %10 = load ptr, ptr %5, align 8
  store ptr %10, ptr %9, align 8
  %11 = load i32, ptr %6, align 4
  %12 = icmp eq i32 %11, 1
  %13 = zext i1 %12 to i8
  store i8 %13, ptr %7, align 1
  %14 = getelementptr inbounds %class.MutexLockerImpl, ptr %8, i32 0, i32 0
  %15 = load ptr, ptr %14, align 8
  %16 = icmp ne ptr %15, null
  br i1 %16, label %17, label %27

17:                                               ; preds = %3
  %18 = load i8, ptr %7, align 1
  %19 = trunc i8 %18 to i1
  br i1 %19, label %20, label %23

20:                                               ; preds = %17
  %21 = getelementptr inbounds %class.MutexLockerImpl, ptr %8, i32 0, i32 0
  %22 = load ptr, ptr %21, align 8
  call void @_ZN5Mutex28lock_without_safepoint_checkEv(ptr noundef nonnull align 8 dereferenceable(104) %22)
  br label %26

23:                                               ; preds = %17
  %24 = getelementptr inbounds %class.MutexLockerImpl, ptr %8, i32 0, i32 0
  %25 = load ptr, ptr %24, align 8
  call void @_ZN5Mutex4lockEv(ptr noundef nonnull align 8 dereferenceable(104) %25)
  br label %26

26:                                               ; preds = %23, %20
  br label %27

27:                                               ; preds = %26, %3
  ret void
}

; Function Attrs: mustprogress nounwind uwtable
define linkonce_odr hidden void @_ZN11MutexLockerD2Ev(ptr noundef nonnull align 8 dereferenceable(8) %0) unnamed_addr #1 comdat align 2 {
  %2 = alloca ptr, align 8
  store ptr %0, ptr %2, align 8
  %3 = load ptr, ptr %2, align 8
  call void @_ZN15MutexLockerImplD2Ev(ptr noundef nonnull align 8 dereferenceable(8) %3) #12
  ret void
}

; Function Attrs: mustprogress nounwind uwtable
define linkonce_odr hidden noundef zeroext i1 @_ZNK17GrowableArrayViewIP11ModuleEntryE8containsERKS1_(ptr noundef nonnull align 8 dereferenceable(16) %0, ptr noundef nonnull align 8 dereferenceable(8) %1) #1 comdat align 2 {
  %3 = alloca i1, align 1
  %4 = alloca ptr, align 8
  %5 = alloca ptr, align 8
  %6 = alloca i32, align 4
  store ptr %0, ptr %4, align 8
  store ptr %1, ptr %5, align 8
  %7 = load ptr, ptr %4, align 8
  store i32 0, ptr %6, align 4
  br label %8

8:                                                ; preds = %25, %2
  %9 = load i32, ptr %6, align 4
  %10 = getelementptr inbounds %class.GrowableArrayBase, ptr %7, i32 0, i32 0
  %11 = load i32, ptr %10, align 8
  %12 = icmp slt i32 %9, %11
  br i1 %12, label %13, label %28

13:                                               ; preds = %8
  %14 = getelementptr inbounds %class.GrowableArrayView, ptr %7, i32 0, i32 1
  %15 = load ptr, ptr %14, align 8
  %16 = load i32, ptr %6, align 4
  %17 = sext i32 %16 to i64
  %18 = getelementptr inbounds ptr, ptr %15, i64 %17
  %19 = load ptr, ptr %18, align 8
  %20 = load ptr, ptr %5, align 8
  %21 = load ptr, ptr %20, align 8
  %22 = icmp eq ptr %19, %21
  br i1 %22, label %23, label %24

23:                                               ; preds = %13
  store i1 true, ptr %3, align 1
  br label %29

24:                                               ; preds = %13
  br label %25

25:                                               ; preds = %24
  %26 = load i32, ptr %6, align 4
  %27 = add nsw i32 %26, 1
  store i32 %27, ptr %6, align 4
  br label %8, !llvm.loop !6

28:                                               ; preds = %8
  store i1 false, ptr %3, align 1
  br label %29

29:                                               ; preds = %28, %23
  %30 = load i1, ptr %3, align 1
  ret i1 %30
}

; Function Attrs: mustprogress nounwind uwtable
define linkonce_odr hidden noundef ptr @_ZNK11ModuleEntry5readsEv(ptr noundef nonnull align 8 dereferenceable(80) %0) #1 comdat align 2 {
  %2 = alloca ptr, align 8
  store ptr %0, ptr %2, align 8
  %3 = load ptr, ptr %2, align 8
  %4 = getelementptr inbounds %class.ModuleEntry, ptr %3, i32 0, i32 4
  %5 = load ptr, ptr %4, align 8
  ret ptr %5
}

; Function Attrs: mustprogress nounwind uwtable
define hidden noundef zeroext i1 @_ZNK11ModuleEntry14has_reads_listEv(ptr noundef nonnull align 8 dereferenceable(80) %0) #1 align 2 {
  %2 = alloca ptr, align 8
  store ptr %0, ptr %2, align 8
  %3 = load ptr, ptr %2, align 8
  %4 = call noundef ptr @_ZNK11ModuleEntry5readsEv(ptr noundef nonnull align 8 dereferenceable(80) %3)
  %5 = icmp ne ptr %4, null
  br i1 %5, label %6, label %10

6:                                                ; preds = %1
  %7 = call noundef ptr @_ZNK11ModuleEntry5readsEv(ptr noundef nonnull align 8 dereferenceable(80) %3)
  %8 = call noundef zeroext i1 @_ZNK17GrowableArrayBase8is_emptyEv(ptr noundef nonnull align 4 dereferenceable(8) %7)
  %9 = xor i1 %8, true
  br label %10

10:                                               ; preds = %6, %1
  %11 = phi i1 [ false, %1 ], [ %9, %6 ]
  ret i1 %11
}

; Function Attrs: mustprogress nounwind uwtable
define linkonce_odr hidden noundef zeroext i1 @_ZNK15ClassLoaderData29is_the_null_class_loader_dataEv(ptr noundef nonnull align 8 dereferenceable(160) %0) #1 comdat align 2 {
  %2 = alloca ptr, align 8
  store ptr %0, ptr %2, align 8
  %3 = load ptr, ptr %2, align 8
  %4 = load ptr, ptr @_ZN15ClassLoaderData27_the_null_class_loader_dataE, align 8
  %5 = icmp eq ptr %3, %4
  ret i1 %5
}

; Function Attrs: mustprogress nounwind uwtable
define linkonce_odr hidden noundef ptr @_ZNK11ModuleEntry11loader_dataEv(ptr noundef nonnull align 8 dereferenceable(80) %0) #1 comdat align 2 {
  %2 = alloca ptr, align 8
  store ptr %0, ptr %2, align 8
  %3 = load ptr, ptr %2, align 8
  %4 = getelementptr inbounds %class.ModuleEntry, ptr %3, i32 0, i32 3
  %5 = load ptr, ptr %4, align 8
  ret ptr %5
}

; Function Attrs: mustprogress nounwind uwtable
define linkonce_odr hidden noundef zeroext i1 @_ZNK11ModuleEntry22has_default_read_edgesEv(ptr noundef nonnull align 8 dereferenceable(80) %0) #1 comdat align 2 {
  %2 = alloca ptr, align 8
  store ptr %0, ptr %2, align 8
  %3 = load ptr, ptr %2, align 8
  %4 = getelementptr inbounds %class.ModuleEntry, ptr %3, i32 0, i32 9
  %5 = load i8, ptr %4, align 1
  %6 = trunc i8 %5 to i1
  ret i1 %6
}

; Function Attrs: mustprogress nounwind uwtable
define linkonce_odr hidden void @_ZN11MutexLockerC2EP5MutexNS0_18SafepointCheckFlagE(ptr noundef nonnull align 8 dereferenceable(8) %0, ptr noundef %1, i32 noundef %2) unnamed_addr #1 comdat align 2 {
  %4 = alloca ptr, align 8
  %5 = alloca ptr, align 8
  %6 = alloca i32, align 4
  store ptr %0, ptr %4, align 8
  store ptr %1, ptr %5, align 8
  store i32 %2, ptr %6, align 4
  %7 = load ptr, ptr %4, align 8
  %8 = load ptr, ptr %5, align 8
  %9 = load i32, ptr %6, align 4
  call void @_ZN15MutexLockerImplC2EP5MutexNS0_18SafepointCheckFlagE(ptr noundef nonnull align 8 dereferenceable(8) %7, ptr noundef %8, i32 noundef %9)
  ret void
}

; Function Attrs: mustprogress nounwind uwtable
define linkonce_odr hidden noundef ptr @_ZN16ModuleEntryTable20javabase_moduleEntryEv() #1 comdat align 2 {
  %1 = load ptr, ptr @_ZN16ModuleEntryTable16_javabase_moduleE, align 8
  ret ptr %1
}

; Function Attrs: mustprogress nounwind uwtable
define linkonce_odr hidden noundef zeroext i1 @_ZNK11ModuleEntry8is_namedEv(ptr noundef nonnull align 8 dereferenceable(80) %0) #1 comdat align 2 {
  %2 = alloca ptr, align 8
  store ptr %0, ptr %2, align 8
  %3 = load ptr, ptr %2, align 8
  %4 = getelementptr inbounds %class.ModuleEntry, ptr %3, i32 0, i32 2
  %5 = load ptr, ptr %4, align 8
  %6 = icmp ne ptr %5, null
  ret i1 %6
}

; Function Attrs: mustprogress nounwind uwtable
define hidden noundef zeroext i1 @_ZNK11ModuleEntry8can_readEPS_(ptr noundef nonnull align 8 dereferenceable(80) %0, ptr noundef %1) #1 align 2 {
  %3 = alloca i1, align 1
  %4 = alloca ptr, align 8
  %5 = alloca ptr, align 8
  %6 = alloca %class.MutexLocker, align 8
  %7 = alloca ptr, align 8
  %8 = alloca i32, align 4
  store ptr %0, ptr %4, align 8
  store ptr %1, ptr %5, align 8
  %9 = load ptr, ptr %4, align 8
  %10 = call noundef zeroext i1 @_ZNK11ModuleEntry8is_namedEv(ptr noundef nonnull align 8 dereferenceable(80) %9)
  br i1 %10, label %11, label %15

11:                                               ; preds = %2
  %12 = load ptr, ptr %5, align 8
  %13 = call noundef ptr @_ZN16ModuleEntryTable20javabase_moduleEntryEv()
  %14 = icmp eq ptr %12, %13
  br i1 %14, label %15, label %16

15:                                               ; preds = %11, %2
  store i1 true, ptr %3, align 1
  br label %39

16:                                               ; preds = %11
  %17 = load ptr, ptr @Module_lock, align 8
  call void @_ZN11MutexLockerC2EP5MutexNS0_18SafepointCheckFlagE(ptr noundef nonnull align 8 dereferenceable(8) %6, ptr noundef %17, i32 noundef 0)
  %18 = call noundef zeroext i1 @_ZNK11ModuleEntry22has_default_read_edgesEv(ptr noundef nonnull align 8 dereferenceable(80) %9)
  br i1 %18, label %19, label %32

19:                                               ; preds = %16
  %20 = load ptr, ptr %5, align 8
  %21 = call noundef zeroext i1 @_ZNK11ModuleEntry8is_namedEv(ptr noundef nonnull align 8 dereferenceable(80) %20)
  br i1 %21, label %32, label %22

22:                                               ; preds = %19
  %23 = load ptr, ptr %5, align 8
  %24 = call noundef ptr @_ZNK11ModuleEntry11loader_dataEv(ptr noundef nonnull align 8 dereferenceable(80) %23)
  store ptr %24, ptr %7, align 8
  %25 = load ptr, ptr %7, align 8
  %26 = call noundef zeroext i1 @_ZNK15ClassLoaderData29is_the_null_class_loader_dataEv(ptr noundef nonnull align 8 dereferenceable(160) %25)
  br i1 %26, label %30, label %27

27:                                               ; preds = %22
  %28 = load ptr, ptr %7, align 8
  %29 = call noundef zeroext i1 @_ZNK15ClassLoaderData27is_system_class_loader_dataEv(ptr noundef nonnull align 8 dereferenceable(160) %28)
  br i1 %29, label %30, label %31

30:                                               ; preds = %27, %22
  store i1 true, ptr %3, align 1
  store i32 1, ptr %8, align 4
  br label %38

31:                                               ; preds = %27
  br label %32

32:                                               ; preds = %31, %19, %16
  %33 = call noundef zeroext i1 @_ZNK11ModuleEntry14has_reads_listEv(ptr noundef nonnull align 8 dereferenceable(80) %9)
  br i1 %33, label %35, label %34

34:                                               ; preds = %32
  store i1 false, ptr %3, align 1
  store i32 1, ptr %8, align 4
  br label %38

35:                                               ; preds = %32
  %36 = call noundef ptr @_ZNK11ModuleEntry5readsEv(ptr noundef nonnull align 8 dereferenceable(80) %9)
  %37 = call noundef zeroext i1 @_ZNK17GrowableArrayViewIP11ModuleEntryE8containsERKS1_(ptr noundef nonnull align 8 dereferenceable(16) %36, ptr noundef nonnull align 8 dereferenceable(8) %5)
  store i1 %37, ptr %3, align 1
  store i32 1, ptr %8, align 4
  br label %38

38:                                               ; preds = %35, %34, %30
  call void @_ZN11MutexLockerD2Ev(ptr noundef nonnull align 8 dereferenceable(8) %6) #12
  br label %39

39:                                               ; preds = %38, %15
  %40 = load i1, ptr %3, align 1
  ret i1 %40
}