; Function Attrs: mustprogress nounwind uwtable
define hidden noundef zeroext i1 @_ZNK11ModuleEntry8can_readEPS_(ptr nocapture noundef nonnull readonly align 8 dereferenceable(80) %0, ptr noundef readonly %1) local_unnamed_addr #0 align 2 {
  %3 = getelementptr inbounds i8, ptr %0, i64 16
  %4 = load ptr, ptr %3, align 8
  %5 = icmp eq ptr %4, null
  %6 = load ptr, ptr @_ZN16ModuleEntryTable16_javabase_moduleE, align 8
  %7 = icmp eq ptr %6, %1
  %or.cond = select i1 %5, i1 true, i1 %7
  br i1 %or.cond, label %_ZN11MutexLockerD2Ev.exit, label %8

8:                                                ; preds = %2
  %9 = load ptr, ptr @Module_lock, align 8
  %.not.i.i = icmp eq ptr %9, null
  br i1 %.not.i.i, label %_ZN11MutexLockerC2EP5MutexNS0_18SafepointCheckFlagE.exit, label %10

10:                                               ; preds = %8
  tail call void @_ZN5Mutex4lockEv(ptr noundef nonnull align 8 dereferenceable(104) %9) #16
  br label %_ZN11MutexLockerC2EP5MutexNS0_18SafepointCheckFlagE.exit

_ZN11MutexLockerC2EP5MutexNS0_18SafepointCheckFlagE.exit: ; preds = %8, %10
  %11 = getelementptr inbounds i8, ptr %0, i64 61
  %12 = load i8, ptr %11, align 1
  %13 = trunc i8 %12 to i1
  br i1 %13, label %14, label %24

14:                                               ; preds = %_ZN11MutexLockerC2EP5MutexNS0_18SafepointCheckFlagE.exit
  %15 = getelementptr inbounds i8, ptr %1, i64 16
  %16 = load ptr, ptr %15, align 8
  %.not = icmp eq ptr %16, null
  br i1 %.not, label %17, label %24

17:                                               ; preds = %14
  %18 = getelementptr inbounds i8, ptr %1, i64 24
  %19 = load ptr, ptr %18, align 8
  %20 = load ptr, ptr @_ZN15ClassLoaderData27_the_null_class_loader_dataE, align 8
  %21 = icmp eq ptr %20, %19
  br i1 %21, label %_ZNK17GrowableArrayViewIP11ModuleEntryE8containsERKS1_.exit, label %22

22:                                               ; preds = %17
  %23 = tail call noundef zeroext i1 @_ZNK15ClassLoaderData27is_system_class_loader_dataEv(ptr noundef nonnull align 8 dereferenceable(160) %19) #16
  br i1 %23, label %_ZNK17GrowableArrayViewIP11ModuleEntryE8containsERKS1_.exit, label %24

24:                                               ; preds = %22, %14, %_ZN11MutexLockerC2EP5MutexNS0_18SafepointCheckFlagE.exit
  %25 = getelementptr inbounds i8, ptr %0, i64 32
  %26 = load ptr, ptr %25, align 8
  %.not.i = icmp eq ptr %26, null
  br i1 %.not.i, label %_ZNK17GrowableArrayViewIP11ModuleEntryE8containsERKS1_.exit, label %_ZNK11ModuleEntry14has_reads_listEv.exit

_ZNK11ModuleEntry14has_reads_listEv.exit:         ; preds = %24
  %27 = load i32, ptr %26, align 4
  %28 = icmp sgt i32 %27, 0
  br i1 %28, label %.lr.ph.i, label %_ZNK17GrowableArrayViewIP11ModuleEntryE8containsERKS1_.exit

.lr.ph.i:                                         ; preds = %_ZNK11ModuleEntry14has_reads_listEv.exit
  %29 = getelementptr inbounds i8, ptr %26, i64 8
  %30 = load ptr, ptr %29, align 8
  %31 = zext nneg i32 %27 to i64
  %32 = load ptr, ptr %30, align 8
  %33 = icmp eq ptr %32, %1
  br i1 %33, label %_ZNK17GrowableArrayViewIP11ModuleEntryE8containsERKS1_.exit, label %.lr.ph

.lr.ph:                                           ; preds = %.lr.ph.i, %34
  %indvars.iv.i10 = phi i64 [ %indvars.iv.next.i, %34 ], [ 0, %.lr.ph.i ]
  %indvars.iv.next.i = add nuw nsw i64 %indvars.iv.i10, 1
  %exitcond.not.i = icmp eq i64 %indvars.iv.next.i, %31
  br i1 %exitcond.not.i, label %_ZNK17GrowableArrayViewIP11ModuleEntryE8containsERKS1_.exit.loopexit, label %34, !llvm.loop !6

34:                                               ; preds = %.lr.ph
  %35 = getelementptr inbounds ptr, ptr %30, i64 %indvars.iv.next.i
  %36 = load ptr, ptr %35, align 8
  %37 = icmp eq ptr %36, %1
  br i1 %37, label %_ZNK17GrowableArrayViewIP11ModuleEntryE8containsERKS1_.exit.loopexit, label %.lr.ph, !llvm.loop !6

_ZNK17GrowableArrayViewIP11ModuleEntryE8containsERKS1_.exit.loopexit: ; preds = %34, %.lr.ph
  %38 = icmp ult i64 %indvars.iv.next.i, %31
  br label %_ZNK17GrowableArrayViewIP11ModuleEntryE8containsERKS1_.exit

_ZNK17GrowableArrayViewIP11ModuleEntryE8containsERKS1_.exit: ; preds = %_ZNK17GrowableArrayViewIP11ModuleEntryE8containsERKS1_.exit.loopexit, %.lr.ph.i, %24, %_ZNK11ModuleEntry14has_reads_listEv.exit, %17, %22
  %.0 = phi i1 [ true, %22 ], [ true, %17 ], [ false, %_ZNK11ModuleEntry14has_reads_listEv.exit ], [ false, %24 ], [ true, %.lr.ph.i ], [ %38, %_ZNK17GrowableArrayViewIP11ModuleEntryE8containsERKS1_.exit.loopexit ]
  br i1 %.not.i.i, label %_ZN11MutexLockerD2Ev.exit, label %39

39:                                               ; preds = %_ZNK17GrowableArrayViewIP11ModuleEntryE8containsERKS1_.exit
  tail call void @_ZN5Mutex6unlockEv(ptr noundef nonnull align 8 dereferenceable(104) %9) #16
  br label %_ZN11MutexLockerD2Ev.exit

_ZN11MutexLockerD2Ev.exit:                        ; preds = %39, %_ZNK17GrowableArrayViewIP11ModuleEntryE8containsERKS1_.exit, %2
  %.1 = phi i1 [ true, %2 ], [ %.0, %_ZNK17GrowableArrayViewIP11ModuleEntryE8containsERKS1_.exit ], [ %.0, %39 ]
  ret i1 %.1
}